Certificate:
    Data:
        Version: 3 (0x2)
        Serial Number:
            0e:6e:c9:3e:43:df:32:9b:e5:9d:46:8b:fe:d2:11:3a:89:5d:a1:13
        Signature Algorithm: sha256WithRSAEncryption
        Issuer: CN=localhost
        Validity
            Not Before: Jul 15 04:03:57 2024 GMT
            Not After : Jul 13 04:03:57 2034 GMT
        Subject: CN=localhost
        Subject Public Key Info:
            Public Key Algorithm: rsaEncryption
                Public-Key: (2048 bit)
                Modulus:
                    00:b2:ed:45:d6:b0:8f:e8:71:7d:b1:94:e9:20:f3:
                    81:82:cb:a8:19:44:1f:ea:55:76:5d:e6:22:67:73:
                    fd:e2:cf:5d:e2:66:53:f0:69:0b:44:75:f1:94:83:
                    a6:67:8e:fa:e2:ed:79:e6:d7:a7:eb:a9:09:76:ac:
                    4f:d4:19:80:61:1a:e2:11:3b:3f:38:c8:51:40:c4:
                    c4:a1:07:4c:90:ca:08:4d:51:cf:ae:9e:28:5a:c1:
                    66:ea:1f:2e:1d:be:2a:df:5a:ff:29:9d:39:dc:25:
                    0d:a1:74:54:8f:b5:ce:1e:ac:27:e6:e1:5f:29:74:
                    5a:0a:4f:b4:4d:2e:8a:6d:28:fc:24:b5:ae:f4:62:
                    5d:b3:6e:9a:77:c6:72:a4:31:d7:c8:92:d4:a4:90:
                    6d:6a:5e:8d:6d:8b:64:c4:6f:24:2c:9a:52:bc:bf:
                    6b:45:c2:bd:bb:b2:e0:21:a0:51:84:6e:1d:1f:d9:
                    6b:1b:56:e1:dc:7d:92:cb:d6:ef:87:9b:48:27:8f:
                    f0:c9:40:d4:44:8a:84:3b:0a:13:4f:98:76:f9:ce:
                    f5:b9:54:c7:67:5c:35:03:b8:54:95:6b:ad:b3:25:
                    12:20:3d:1d:19:31:c4:63:87:29:1a:75:96:d1:cc:
                    c7:69:0a:b0:61:66:aa:8a:46:70:16:37:c8:2d:32:
                    67:af
                Exponent: 65537 (0x10001)
        X509v3 extensions:
            X509v3 Subject Key Identifier: 
                33:5B:D3:14:F5:F5:40:24:5B:24:9F:4D:9E:02:33:EF:76:25:A4:F1
            X509v3 Authority Key Identifier: 
                33:5B:D3:14:F5:F5:40:24:5B:24:9F:4D:9E:02:33:EF:76:25:A4:F1
            X509v3 Basic Constraints: critical
                CA:TRUE
    Signature Algorithm: sha256WithRSAEncryption
    Signature Value:
        46:a8:99:c3:53:2d:6c:ea:a6:22:8d:73:d7:9f:f9:87:e6:d8:
        ee:0c:63:39:64:e9:5f:02:38:1e:ff:da:f8:f8:b7:c1:b2:fc:
        b9:56:b0:16:4c:d5:7b:cf:61:c6:b1:dd:2c:8b:8e:99:ba:22:
        52:f0:c1:82:4f:61:39:e3:ed:61:ac:d2:98:2e:58:e2:42:02:
        90:41:d9:2e:87:e1:d7:51:d6:e2:01:60:0d:75:a2:1b:db:ed:
        e0:6f:f0:38:74:52:b2:b2:76:29:3b:45:24:dc:4a:7a:f8:37:
        36:18:22:9e:51:89:7b:9a:96:0d:57:1e:d2:44:59:d4:f0:9e:
        23:4c:19:87:7b:32:48:9b:85:1b:11:27:9f:a8:96:4a:02:03:
        72:c6:86:a9:ae:42:db:ca:36:9e:93:db:d1:06:3a:bb:48:d1:
        2c:ed:34:bf:76:10:da:4c:3b:74:fd:b7:17:39:9c:47:db:cd:
        f2:b2:4f:6b:ea:ee:09:f1:e3:a4:d0:ae:5a:e6:ce:2a:ba:cb:
        3f:9e:1a:06:ea:2b:77:69:2f:be:50:47:61:cb:00:32:71:c0:
        8d:aa:84:a9:cf:22:ee:fe:c8:7f:60:cf:b9:6b:30:72:c2:86:
        d1:0a:e0:ea:39:4b:ad:40:7a:e5:ab:da:88:64:e0:a0:93:dd:
        24:cc:bb:52
-----BEGIN CERTIFICATE-----
MIIDCTCCAfGgAwIBAgIUDm7JPkPfMpvlnUaL/tIROoldoRMwDQYJKoZIhvcNAQEL
BQAwFDESMBAGA1UEAwwJbG9jYWxob3N0MB4XDTI0MDcxNTA0MDM1N1oXDTM0MDcx
MzA0MDM1N1owFDESMBAGA1UEAwwJbG9jYWxob3N0MIIBIjANBgkqhkiG9w0BAQEF
AAOCAQ8AMIIBCgKCAQEAsu1F1rCP6HF9sZTpIPOBgsuoGUQf6lV2XeYiZ3P94s9d
4mZT8GkLRHXxlIOmZ4764u155ten66kJdqxP1BmAYRriETs/OMhRQMTEoQdMkMoI
TVHPrp4oWsFm6h8uHb4q31r/KZ053CUNoXRUj7XOHqwn5uFfKXRaCk+0TS6KbSj8
JLWu9GJds26ad8ZypDHXyJLUpJBtal6NbYtkxG8kLJpSvL9rRcK9u7LgIaBRhG4d
H9lrG1bh3H2Sy9bvh5tIJ4/wyUDURIqEOwoTT5h2+c71uVTHZ1w1A7hUlWutsyUS
ID0dGTHEY4cpGnWW0czHaQqwYWaqikZwFjfILTJnrwIDAQABo1MwUTAdBgNVHQ4E
FgQUM1vTFPX1QCRbJJ9NngIz73YlpPEwHwYDVR0jBBgwFoAUM1vTFPX1QCRbJJ9N
ngIz73YlpPEwDwYDVR0TAQH/BAUwAwEB/zANBgkqhkiG9w0BAQsFAAOCAQEARqiZ
w1MtbOqmIo1z15/5h+bY7gxjOWTpXwI4Hv/a+Pi3wbL8uVawFkzVe89hxrHdLIuO
mboiUvDBgk9hOePtYazSmC5Y4kICkEHZLofh11HW4gFgDXWiG9vt4G/wOHRSsrJ2
KTtFJNxKevg3NhginlGJe5qWDVce0kRZ1PCeI0wZh3sySJuFGxEnn6iWSgIDcsaG
qa5C28o2npPb0QY6u0jRLO00v3YQ2kw7dP23FzmcR9vN8rJPa+ruCfHjpNCuWubO
KrrLP54aBuord2kvvlBHYcsAMnHAjaqEqc8i7v7If2DPuWswcsKG0Qrg6jlLrUB6
5avaiGTgoJPdJMy7Ug==
-----END CERTIFICATE-----
